; Function Attrs: mustprogress uwtable
define hidden void @_ZN2cv10BRISK_ImplC2EiiRKSt6vectorIfSaIfEERKS1_IiSaIiEEffS7_(ptr noundef nonnull align 8 dereferenceable(96) %0, ptr noundef %1, i32 noundef %2, i32 noundef %3, ptr nocapture noundef nonnull readonly align 8 dereferenceable(24) %4, ptr nocapture noundef nonnull readonly align 8 dereferenceable(24) %5, float noundef %6, float noundef %7, ptr nocapture noundef nonnull readonly %8) unnamed_addr #0 align 2 personality ptr @__gxx_personality_v0 {
  %10 = getelementptr inbounds i8, ptr %1, i64 8
  %11 = getelementptr inbounds i8, ptr %1, i64 16
  %12 = load ptr, ptr %11, align 8
  store ptr %12, ptr %0, align 8
  %13 = getelementptr inbounds i8, ptr %1, i64 24
  %14 = load ptr, ptr %13, align 8
  %15 = getelementptr i8, ptr %12, i64 -80
  %16 = load i64, ptr %15, align 8
  %17 = getelementptr inbounds i8, ptr %0, i64 %16
  store ptr %14, ptr %17, align 8
  %18 = load ptr, ptr %10, align 8
  store ptr %18, ptr %0, align 8
  %19 = getelementptr inbounds i8, ptr %1, i64 32
  %20 = load ptr, ptr %19, align 8
  %21 = getelementptr i8, ptr %18, i64 -80
  %22 = load i64, ptr %21, align 8
  %23 = getelementptr inbounds i8, ptr %0, i64 %22
  store ptr %20, ptr %23, align 8
  %24 = load ptr, ptr %1, align 8
  store ptr %24, ptr %0, align 8
  %25 = getelementptr inbounds i8, ptr %1, i64 40
  %26 = load ptr, ptr %25, align 8
  %27 = getelementptr i8, ptr %24, i64 -80
  %28 = load i64, ptr %27, align 8
  %29 = getelementptr inbounds i8, ptr %0, i64 %28
  store ptr %26, ptr %29, align 8
  invoke void @_ZN2cv10BRISK_Impl14generateKernelERKSt6vectorIfSaIfEERKS1_IiSaIiEEffS9_(ptr noundef nonnull align 8 dereferenceable(96) %0, ptr noundef nonnull align 8 dereferenceable(24) %4, ptr noundef nonnull align 8 dereferenceable(24) %5, float noundef %6, float noundef %7, ptr noundef nonnull align 8 dereferenceable(24) %8)
          to label %30 unwind label %33

30:                                               ; preds = %9
  %31 = getelementptr inbounds i8, ptr %0, i64 8
  store i32 %2, ptr %31, align 8
  %32 = getelementptr inbounds i8, ptr %0, i64 12
  store i32 %3, ptr %32, align 4
  ret void

33:                                               ; preds = %9
  %34 = landingpad { ptr, i32 }
          cleanup
  tail call void @_ZN2cv9Feature2DD2Ev(ptr noundef nonnull align 8 dereferenceable(8) %0, ptr noundef nonnull %11) #22
  resume { ptr, i32 } %34
}